target datalayout = "e-m:e-p270:32:32-p271:32:32-p272:64:64-i64:64-i128:128-f80:128-n8:16:32:64-S128"
target triple = "x86_64-pc-linux-gnu"

@.str.200 = private unnamed_addr constant [36 x i8] c"Could not remove breakpoint %s: %s\0A\00", align 1

; Function Attrs: nounwind sspstrong uwtable
define internal i32 @remove_break_f(ptr noundef %0, i32 noundef %1, ptr noundef %2) #0 {
  %4 = alloca i32, align 4
  %5 = alloca ptr, align 8
  %6 = alloca i32, align 4
  %7 = alloca ptr, align 8
  %8 = alloca i32, align 4
  %9 = alloca i32, align 4
  store ptr %0, ptr %5, align 8
  store i32 %1, ptr %6, align 4
  store ptr %2, ptr %7, align 8
  call void @llvm.lifetime.start.p0(i64 4, ptr %8) #18
  store i32 0, ptr %8, align 4, !annotation !4
  %10 = load ptr, ptr %5, align 8
  %11 = call ptr @blk_bs(ptr noundef %10)
  %12 = load ptr, ptr %7, align 8
  %13 = getelementptr inbounds ptr, ptr %12, i64 1
  %14 = load ptr, ptr %13, align 8
  %15 = call i32 @bdrv_debug_remove_breakpoint(ptr noundef %11, ptr noundef %14)
  store i32 %15, ptr %8, align 4
  %16 = load i32, ptr %8, align 4
  %17 = icmp slt i32 %16, 0
  br i1 %17, label %18, label %27

18:                                               ; preds = %3
  %19 = load ptr, ptr %7, align 8
  %20 = getelementptr inbounds ptr, ptr %19, i64 1
  %21 = load ptr, ptr %20, align 8
  %22 = load i32, ptr %8, align 4
  %23 = sub i32 0, %22
  %24 = call ptr @strerror(i32 noundef %23) #18
  %25 = call i32 (i32, ptr, ...) @__printf_chk(i32 noundef 1, ptr noundef @.str.200, ptr noundef %21, ptr noundef %24)
  %26 = load i32, ptr %8, align 4
  store i32 %26, ptr %4, align 4
  store i32 1, ptr %9, align 4
  br label %28

27:                                               ; preds = %3
  store i32 0, ptr %4, align 4
  store i32 1, ptr %9, align 4
  br label %28

28:                                               ; preds = %27, %18
  call void @llvm.lifetime.end.p0(i64 4, ptr %8) #18
  %29 = load i32, ptr %4, align 4
  ret i32 %29
}