; Function Attrs: nounwind sspstrong uwtable
define internal range(i32 -2147483648, 1) i32 @remove_break_f(ptr noundef %0, i32 %1, ptr noundef readonly captures(none) %2) #0 {
  %4 = tail call ptr @blk_bs(ptr noundef %0) #26
  %5 = getelementptr inbounds nuw i8, ptr %2, i64 8
  %6 = load ptr, ptr %5, align 8
  %7 = tail call i32 @bdrv_debug_remove_breakpoint(ptr noundef %4, ptr noundef %6) #26
  %8 = icmp slt i32 %7, 0
  br i1 %8, label %9, label %14

9:                                                ; preds = %3
  %10 = load ptr, ptr %5, align 8
  %11 = sub i32 0, %7
  %12 = tail call ptr @strerror(i32 noundef %11) #26
  %13 = tail call i32 (i32, ptr, ...) @__printf_chk(i32 noundef 1, ptr noundef nonnull @.str.200, ptr noundef %10, ptr noundef %12) #26
  br label %14

14:                                               ; preds = %3, %9
  %.0 = phi i32 [ %7, %9 ], [ 0, %3 ]
  ret i32 %.0
}